
MotorDriver.elf:     file format elf32-avr

Sections:
Idx Name          Size      VMA       LMA       File off  Algn
  0 .text         00000122  00000000  00000000  00000054  2**1
                  CONTENTS, ALLOC, LOAD, READONLY, CODE

Disassembly of section .text:

00000000 <__vectors>:
   0:	12 c0       	rjmp	.+36     	; 0x26 <__ctors_end>
   2:	17 c0       	rjmp	.+46     	; 0x32 <__bad_interrupt>
   4:	16 c0       	rjmp	.+44     	; 0x32 <__bad_interrupt>
   6:	15 c0       	rjmp	.+42     	; 0x32 <__bad_interrupt>
   8:	14 c0       	rjmp	.+40     	; 0x32 <__bad_interrupt>
   a:	13 c0       	rjmp	.+38     	; 0x32 <__bad_interrupt>
   c:	12 c0       	rjmp	.+36     	; 0x32 <__bad_interrupt>
   e:	11 c0       	rjmp	.+34     	; 0x32 <__bad_interrupt>
  10:	10 c0       	rjmp	.+32     	; 0x32 <__bad_interrupt>
  12:	0f c0       	rjmp	.+30     	; 0x32 <__bad_interrupt>
  14:	0e c0       	rjmp	.+28     	; 0x32 <__bad_interrupt>
  16:	0d c0       	rjmp	.+26     	; 0x32 <__bad_interrupt>
  18:	0c c0       	rjmp	.+24     	; 0x32 <__bad_interrupt>
  1a:	0b c0       	rjmp	.+22     	; 0x32 <__bad_interrupt>
  1c:	0a c0       	rjmp	.+20     	; 0x32 <__bad_interrupt>
  1e:	09 c0       	rjmp	.+18     	; 0x32 <__bad_interrupt>
  20:	08 c0       	rjmp	.+16     	; 0x32 <__bad_interrupt>
  22:	07 c0       	rjmp	.+14     	; 0x32 <__bad_interrupt>
  24:	06 c0       	rjmp	.+12     	; 0x32 <__bad_interrupt>

00000026 <__ctors_end>:
  26:	11 24       	eor	r1, r1
  28:	1f be       	out	0x3f, r1	; 63
  2a:	cf ed       	ldi	r28, 0xDF	; 223
  2c:	cd bf       	out	0x3d, r28	; 61
  2e:	4f d0       	rcall	.+158    	; 0xce <main>
  30:	76 c0       	rjmp	.+236    	; 0x11e <_exit>

00000032 <__bad_interrupt>:
  32:	e6 cf       	rjmp	.-52     	; 0x0 <__vectors>

00000034 <chSpeedChA>:
  34:	86 bf       	out	0x36, r24	; 54
  36:	08 95       	ret

00000038 <chSpeedChB>:
  38:	8c bf       	out	0x3c, r24	; 60
  3a:	08 95       	ret

0000003c <chDirChA>:
  3c:	82 30       	cpi	r24, 0x02	; 2
  3e:	51 f0       	breq	.+20     	; 0x54 <__SREG__+0x15>
  40:	83 30       	cpi	r24, 0x03	; 3
  42:	51 f0       	breq	.+20     	; 0x58 <__SREG__+0x19>
  44:	81 30       	cpi	r24, 0x01	; 1
  46:	19 f0       	breq	.+6      	; 0x4e <__SREG__+0xf>
  48:	21 e0       	ldi	r18, 0x01	; 1
  4a:	30 e0       	ldi	r19, 0x00	; 0
  4c:	09 c0       	rjmp	.+18     	; 0x60 <__SREG__+0x21>
  4e:	c0 9a       	sbi	0x18, 0	; 24
  50:	c1 98       	cbi	0x18, 1	; 24
  52:	04 c0       	rjmp	.+8      	; 0x5c <__SREG__+0x1d>
  54:	c0 98       	cbi	0x18, 0	; 24
  56:	01 c0       	rjmp	.+2      	; 0x5a <__SREG__+0x1b>
  58:	c0 9a       	sbi	0x18, 0	; 24
  5a:	c1 9a       	sbi	0x18, 1	; 24
  5c:	20 e0       	ldi	r18, 0x00	; 0
  5e:	30 e0       	ldi	r19, 0x00	; 0
  60:	c9 01       	movw	r24, r18
  62:	08 95       	ret

00000064 <chDirChB>:
  64:	82 30       	cpi	r24, 0x02	; 2
  66:	51 f0       	breq	.+20     	; 0x7c <chDirChB+0x18>
  68:	83 30       	cpi	r24, 0x03	; 3
  6a:	51 f0       	breq	.+20     	; 0x80 <chDirChB+0x1c>
  6c:	81 30       	cpi	r24, 0x01	; 1
  6e:	19 f0       	breq	.+6      	; 0x76 <chDirChB+0x12>
  70:	21 e0       	ldi	r18, 0x01	; 1
  72:	30 e0       	ldi	r19, 0x00	; 0
  74:	09 c0       	rjmp	.+18     	; 0x88 <chDirChB+0x24>
  76:	c6 9a       	sbi	0x18, 6	; 24
  78:	c7 98       	cbi	0x18, 7	; 24
  7a:	04 c0       	rjmp	.+8      	; 0x84 <chDirChB+0x20>
  7c:	c6 98       	cbi	0x18, 6	; 24
  7e:	01 c0       	rjmp	.+2      	; 0x82 <chDirChB+0x1e>
  80:	c6 9a       	sbi	0x18, 6	; 24
  82:	c7 9a       	sbi	0x18, 7	; 24
  84:	20 e0       	ldi	r18, 0x00	; 0
  86:	30 e0       	ldi	r19, 0x00	; 0
  88:	c9 01       	movw	r24, r18
  8a:	08 95       	ret

0000008c <initL298DCMotor>:
  8c:	8d 9a       	sbi	0x11, 5	; 17
  8e:	87 b3       	in	r24, 0x17	; 23
  90:	87 6c       	ori	r24, 0xC7	; 199
  92:	87 bb       	out	0x17, r24	; 23
  94:	80 b7       	in	r24, 0x30	; 48
  96:	80 68       	ori	r24, 0x80	; 128
  98:	80 bf       	out	0x30, r24	; 48
  9a:	80 b7       	in	r24, 0x30	; 48
  9c:	8f 7b       	andi	r24, 0xBF	; 191
  9e:	80 bf       	out	0x30, r24	; 48
  a0:	80 b7       	in	r24, 0x30	; 48
  a2:	80 62       	ori	r24, 0x20	; 32
  a4:	80 bf       	out	0x30, r24	; 48
  a6:	80 b7       	in	r24, 0x30	; 48
  a8:	8f 7e       	andi	r24, 0xEF	; 239
  aa:	80 bf       	out	0x30, r24	; 48
  ac:	80 b7       	in	r24, 0x30	; 48
  ae:	83 60       	ori	r24, 0x03	; 3
  b0:	80 bf       	out	0x30, r24	; 48
  b2:	83 b7       	in	r24, 0x33	; 51
  b4:	87 7f       	andi	r24, 0xF7	; 247
  b6:	83 bf       	out	0x33, r24	; 51
  b8:	83 b7       	in	r24, 0x33	; 51
  ba:	8d 7f       	andi	r24, 0xFD	; 253
  bc:	83 bf       	out	0x33, r24	; 51
  be:	83 b7       	in	r24, 0x33	; 51
  c0:	85 60       	ori	r24, 0x05	; 5
  c2:	83 bf       	out	0x33, r24	; 51
  c4:	16 be       	out	0x36, r1	; 54
  c6:	1c be       	out	0x3c, r1	; 60
  c8:	08 95       	ret

000000ca <setup>:
  ca:	e0 df       	rcall	.-64     	; 0x8c <initL298DCMotor>
  cc:	08 95       	ret

000000ce <main>:
  ce:	ef 92       	push	r14
  d0:	ff 92       	push	r15
  d2:	1f 93       	push	r17
  d4:	cf 93       	push	r28
  d6:	df 93       	push	r29
  d8:	d9 df       	rcall	.-78     	; 0x8c <initL298DCMotor>
  da:	8f ea       	ldi	r24, 0xAF	; 175
  dc:	ad df       	rcall	.-166    	; 0x38 <chSpeedChB>
  de:	82 e0       	ldi	r24, 0x02	; 2
  e0:	ad df       	rcall	.-166    	; 0x3c <chDirChA>
  e2:	81 e0       	ldi	r24, 0x01	; 1
  e4:	bf df       	rcall	.-130    	; 0x64 <chDirChB>
  e6:	c0 e0       	ldi	r28, 0x00	; 0
  e8:	d0 e0       	ldi	r29, 0x00	; 0
  ea:	80 e4       	ldi	r24, 0x40	; 64
  ec:	e8 2e       	mov	r14, r24
  ee:	8f e1       	ldi	r24, 0x1F	; 31
  f0:	f8 2e       	mov	r15, r24
  f2:	06 c0       	rjmp	.+12     	; 0x100 <__stack+0x21>
  f4:	8c 2f       	mov	r24, r28
  f6:	9e df       	rcall	.-196    	; 0x34 <chSpeedChA>
  f8:	c7 01       	movw	r24, r14
  fa:	01 97       	sbiw	r24, 0x01	; 1
  fc:	f1 f7       	brne	.-4      	; 0xfa <__stack+0x1b>
  fe:	21 96       	adiw	r28, 0x01	; 1
 100:	ca 3f       	cpi	r28, 0xFA	; 250
 102:	d1 05       	cpc	r29, r1
 104:	bc f3       	brlt	.-18     	; 0xf4 <__stack+0x15>
 106:	1f ef       	ldi	r17, 0xFF	; 255
 108:	81 2f       	mov	r24, r17
 10a:	94 df       	rcall	.-216    	; 0x34 <chSpeedChA>
 10c:	c7 01       	movw	r24, r14
 10e:	01 97       	sbiw	r24, 0x01	; 1
 110:	f1 f7       	brne	.-4      	; 0x10e <__stack+0x2f>
 112:	11 50       	subi	r17, 0x01	; 1
 114:	11 30       	cpi	r17, 0x01	; 1
 116:	c1 f7       	brne	.-16     	; 0x108 <__stack+0x29>
 118:	c0 e0       	ldi	r28, 0x00	; 0
 11a:	d0 e0       	ldi	r29, 0x00	; 0
 11c:	f1 cf       	rjmp	.-30     	; 0x100 <__stack+0x21>

0000011e <_exit>:
 11e:	f8 94       	cli

00000120 <__stop_program>:
 120:	ff cf       	rjmp	.-2      	; 0x120 <__stop_program>
